target datalayout = "e-m:e-p270:32:32-p271:32:32-p272:64:64-i64:64-i128:128-f80:128-n8:16:32:64-S128"
target triple = "x86_64-unknown-linux-gnu"

%"struct.node::AssertionInfo" = type { ptr, ptr, ptr }
%"class.std::__cxx11::basic_string" = type { %"struct.std::__cxx11::basic_string<char>::_Alloc_hider", i64, %union.anon }
%"struct.std::__cxx11::basic_string<char>::_Alloc_hider" = type { ptr }
%union.anon = type { i64, [8 x i8] }
%"class.std::allocator" = type { i8 }

@_ZZN4node11StringBytes10hex_encodeEPKcmPcmE4args = internal constant %"struct.node::AssertionInfo" { ptr @.str.21, ptr @.str.22, ptr @.str.23 }, align 8
@_ZZN4node11StringBytes10hex_encodeEPKcmPcmE3hex = internal constant [17 x i8] c"0123456789abcdef\00", align 16

; Function Attrs: mustprogress nounwind uwtable
define dso_local noundef i64 @_ZN4node11StringBytes10hex_encodeEPKcmPcm(ptr noundef %src, i64 noundef %slen, ptr noundef %dst, i64 noundef %dlen) #4 align 2 {
entry:
  %src.addr = alloca ptr, align 8
  %slen.addr = alloca i64, align 8
  %dst.addr = alloca ptr, align 8
  %dlen.addr = alloca i64, align 8
  %i = alloca i32, align 4
  %k = alloca i32, align 4
  %val = alloca i8, align 1
  store ptr %src, ptr %src.addr, align 8
  store i64 %slen, ptr %slen.addr, align 8
  store ptr %dst, ptr %dst.addr, align 8
  store i64 %dlen, ptr %dlen.addr, align 8
  br label %do.body

do.body:                                          ; preds = %entry
  %0 = load i64, ptr %dlen.addr, align 8
  %1 = load i64, ptr %slen.addr, align 8
  %mul = mul i64 %1, 2
  %cmp = icmp uge i64 %0, %mul
  br i1 %cmp, label %land.rhs, label %land.end

land.rhs:                                         ; preds = %do.body
  br label %land.end

land.end:                                         ; preds = %land.rhs, %do.body
  %2 = phi i1 [ false, %do.body ], [ true, %land.rhs ]
  %lnot = xor i1 %2, true
  %lnot1 = xor i1 %lnot, true
  %lnot2 = xor i1 %lnot1, true
  br i1 %lnot2, label %if.then, label %if.end

if.then:                                          ; preds = %land.end
  br label %do.body3

do.body3:                                         ; preds = %if.then
  call void @_ZN4node6AssertERKNS_13AssertionInfoE(ptr noundef nonnull align 8 dereferenceable(24) @_ZZN4node11StringBytes10hex_encodeEPKcmPcmE4args)
  call void @abort() #16
  unreachable

do.end:                                           ; No predecessors!
  br label %if.end

if.end:                                           ; preds = %do.end, %land.end
  br label %do.end4

do.end4:                                          ; preds = %if.end
  %3 = load i64, ptr %slen.addr, align 8
  %mul5 = mul i64 %3, 2
  store i64 %mul5, ptr %dlen.addr, align 8
  store i32 0, ptr %i, align 4
  store i32 0, ptr %k, align 4
  br label %for.cond

for.cond:                                         ; preds = %for.inc, %do.end4
  %4 = load i32, ptr %k, align 4
  %conv = zext i32 %4 to i64
  %5 = load i64, ptr %dlen.addr, align 8
  %cmp6 = icmp ult i64 %conv, %5
  br i1 %cmp6, label %for.body, label %for.end

for.body:                                         ; preds = %for.cond
  %6 = load ptr, ptr %src.addr, align 8
  %7 = load i32, ptr %i, align 4
  %idxprom = zext i32 %7 to i64
  %arrayidx = getelementptr inbounds i8, ptr %6, i64 %idxprom
  %8 = load i8, ptr %arrayidx, align 1
  store i8 %8, ptr %val, align 1
  %9 = load i8, ptr %val, align 1
  %conv7 = zext i8 %9 to i32
  %shr = ashr i32 %conv7, 4
  %idxprom8 = sext i32 %shr to i64
  %arrayidx9 = getelementptr inbounds [17 x i8], ptr @_ZZN4node11StringBytes10hex_encodeEPKcmPcmE3hex, i64 0, i64 %idxprom8
  %10 = load i8, ptr %arrayidx9, align 1
  %11 = load ptr, ptr %dst.addr, align 8
  %12 = load i32, ptr %k, align 4
  %add = add i32 %12, 0
  %idxprom10 = zext i32 %add to i64
  %arrayidx11 = getelementptr inbounds i8, ptr %11, i64 %idxprom10
  store i8 %10, ptr %arrayidx11, align 1
  %13 = load i8, ptr %val, align 1
  %conv12 = zext i8 %13 to i32
  %and = and i32 %conv12, 15
  %idxprom13 = sext i32 %and to i64
  %arrayidx14 = getelementptr inbounds [17 x i8], ptr @_ZZN4node11StringBytes10hex_encodeEPKcmPcmE3hex, i64 0, i64 %idxprom13
  %14 = load i8, ptr %arrayidx14, align 1
  %15 = load ptr, ptr %dst.addr, align 8
  %16 = load i32, ptr %k, align 4
  %add15 = add i32 %16, 1
  %idxprom16 = zext i32 %add15 to i64
  %arrayidx17 = getelementptr inbounds i8, ptr %15, i64 %idxprom16
  store i8 %14, ptr %arrayidx17, align 1
  br label %for.inc

for.inc:                                          ; preds = %for.body
  %17 = load i32, ptr %i, align 4
  %add18 = add i32 %17, 1
  store i32 %add18, ptr %i, align 4
  %18 = load i32, ptr %k, align 4
  %add19 = add i32 %18, 2
  store i32 %add19, ptr %k, align 4
  br label %for.cond, !llvm.loop !9

for.end:                                          ; preds = %for.cond
  %19 = load i64, ptr %dlen.addr, align 8
  ret i64 %19
}

; Function Attrs: mustprogress nounwind uwtable
define linkonce_odr dso_local void @_ZNSt7__cxx1112basic_stringIcSt11char_traitsIcESaIcEEC2IS3_EEmcRKS3_(ptr noundef nonnull align 8 dereferenceable(32) %this, i64 noundef %__n, i8 noundef signext %__c, ptr noundef nonnull align 1 dereferenceable(1) %__a) unnamed_addr #4 comdat align 2 {
entry:
  %this.addr = alloca ptr, align 8
  %__n.addr = alloca i64, align 8
  %__c.addr = alloca i8, align 1
  %__a.addr = alloca ptr, align 8
  store ptr %this, ptr %this.addr, align 8
  store i64 %__n, ptr %__n.addr, align 8
  store i8 %__c, ptr %__c.addr, align 1
  store ptr %__a, ptr %__a.addr, align 8
  %this1 = load ptr, ptr %this.addr, align 8
  %_M_dataplus = getelementptr inbounds %"class.std::__cxx11::basic_string", ptr %this1, i32 0, i32 0
  %call = call noundef ptr @_ZNSt7__cxx1112basic_stringIcSt11char_traitsIcESaIcEE13_M_local_dataEv(ptr noundef nonnull align 8 dereferenceable(32) %this1)
  %0 = load ptr, ptr %__a.addr, align 8
  call void @_ZNSt7__cxx1112basic_stringIcSt11char_traitsIcESaIcEE12_Alloc_hiderC1EPcRKS3_(ptr noundef nonnull align 8 dereferenceable(8) %_M_dataplus, ptr noundef %call, ptr noundef nonnull align 1 dereferenceable(1) %0)
  %1 = load i64, ptr %__n.addr, align 8
  %2 = load i8, ptr %__c.addr, align 1
  call void @_ZNSt7__cxx1112basic_stringIcSt11char_traitsIcESaIcEE12_M_constructEmc(ptr noundef nonnull align 8 dereferenceable(32) %this1, i64 noundef %1, i8 noundef signext %2)
  ret void
}

; Function Attrs: mustprogress nounwind uwtable
define dso_local void @_ZN4node11StringBytes10hex_encodeB5cxx11EPKcm(ptr noalias sret(%"class.std::__cxx11::basic_string") align 8 %agg.result, ptr noundef %src, i64 noundef %slen) #4 align 2 {
entry:
  %result.ptr = alloca ptr, align 8
  %src.addr = alloca ptr, align 8
  %slen.addr = alloca i64, align 8
  %dlen = alloca i64, align 8
  %nrvo = alloca i1, align 1
  %ref.tmp = alloca %"class.std::allocator", align 1
  store ptr %agg.result, ptr %result.ptr, align 8
  store ptr %src, ptr %src.addr, align 8
  store i64 %slen, ptr %slen.addr, align 8
  %0 = load i64, ptr %slen.addr, align 8
  %mul = mul i64 %0, 2
  store i64 %mul, ptr %dlen, align 8
  store i1 false, ptr %nrvo, align 1
  %1 = load i64, ptr %dlen, align 8
  call void @_ZNSaIcEC1Ev(ptr noundef nonnull align 1 dereferenceable(1) %ref.tmp) #3
  call void @_ZNSt7__cxx1112basic_stringIcSt11char_traitsIcESaIcEEC2IS3_EEmcRKS3_(ptr noundef nonnull align 8 dereferenceable(32) %agg.result, i64 noundef %1, i8 noundef signext 0, ptr noundef nonnull align 1 dereferenceable(1) %ref.tmp)
  call void @_ZNSaIcED1Ev(ptr noundef nonnull align 1 dereferenceable(1) %ref.tmp) #3
  %2 = load ptr, ptr %src.addr, align 8
  %3 = load i64, ptr %slen.addr, align 8
  %call = call noundef ptr @_ZNSt7__cxx1112basic_stringIcSt11char_traitsIcESaIcEE4dataEv(ptr noundef nonnull align 8 dereferenceable(32) %agg.result) #3
  %4 = load i64, ptr %dlen, align 8
  %call1 = call noundef i64 @_ZN4node11StringBytes10hex_encodeEPKcmPcm(ptr noundef %2, i64 noundef %3, ptr noundef %call, i64 noundef %4)
  store i1 true, ptr %nrvo, align 1
  %nrvo.val = load i1, ptr %nrvo, align 1
  br i1 %nrvo.val, label %nrvo.skipdtor, label %nrvo.unused

nrvo.unused:                                      ; preds = %entry
  call void @_ZNSt7__cxx1112basic_stringIcSt11char_traitsIcESaIcEED1Ev(ptr noundef nonnull align 8 dereferenceable(32) %agg.result) #3
  br label %nrvo.skipdtor

nrvo.skipdtor:                                    ; preds = %nrvo.unused, %entry
  ret void
}