; Function Attrs: mustprogress nounwind uwtable
define dso_local void @_ZN4node11StringBytes10hex_encodeB5cxx11EPKcm(ptr noalias sret(%"class.std::__cxx11::basic_string") align 8 %agg.result, ptr nocapture noundef readonly %src, i64 noundef %slen) local_unnamed_addr #3 align 2 {
for.cond.preheader.i:
  %ref.tmp = alloca %"class.std::allocator", align 1
  %mul = shl i64 %slen, 1
  call void @_ZNSaIcEC1Ev(ptr noundef nonnull align 1 dereferenceable(1) %ref.tmp) #19
  %call.i = call noundef ptr @_ZNSt7__cxx1112basic_stringIcSt11char_traitsIcESaIcEE13_M_local_dataEv(ptr noundef nonnull align 8 dereferenceable(32) %agg.result) #19
  call void @_ZNSt7__cxx1112basic_stringIcSt11char_traitsIcESaIcEE12_Alloc_hiderC1EPcRKS3_(ptr noundef nonnull align 8 dereferenceable(8) %agg.result, ptr noundef %call.i, ptr noundef nonnull align 1 dereferenceable(1) %ref.tmp) #19
  call void @_ZNSt7__cxx1112basic_stringIcSt11char_traitsIcESaIcEE12_M_constructEmc(ptr noundef nonnull align 8 dereferenceable(32) %agg.result, i64 noundef %mul, i8 noundef signext 0) #19
  call void @_ZNSaIcED1Ev(ptr noundef nonnull align 1 dereferenceable(1) %ref.tmp) #19
  %call = call noundef ptr @_ZNSt7__cxx1112basic_stringIcSt11char_traitsIcESaIcEE4dataEv(ptr noundef nonnull align 8 dereferenceable(32) %agg.result) #19
  %cmp610.not.i = icmp eq i64 %mul, 0
  br i1 %cmp610.not.i, label %_ZN4node11StringBytes10hex_encodeEPKcmPcm.exit, label %for.body.i

for.body.i:                                       ; preds = %for.cond.preheader.i, %for.body.i
  %conv13.i = phi i64 [ %conv.i, %for.body.i ], [ 0, %for.cond.preheader.i ]
  %k.012.i = phi i32 [ %add19.i, %for.body.i ], [ 0, %for.cond.preheader.i ]
  %i.011.i = phi i32 [ %add18.i, %for.body.i ], [ 0, %for.cond.preheader.i ]
  %idxprom.i = zext i32 %i.011.i to i64
  %arrayidx.i = getelementptr inbounds i8, ptr %src, i64 %idxprom.i
  %0 = load i8, ptr %arrayidx.i, align 1
  %conv7.i = zext i8 %0 to i32
  %shr.i = lshr i32 %conv7.i, 4
  %idxprom8.i = zext nneg i32 %shr.i to i64
  %arrayidx9.i = getelementptr inbounds [17 x i8], ptr @_ZZN4node11StringBytes10hex_encodeEPKcmPcmE3hex, i64 0, i64 %idxprom8.i
  %1 = load i8, ptr %arrayidx9.i, align 1
  %arrayidx11.i = getelementptr inbounds i8, ptr %call, i64 %conv13.i
  store i8 %1, ptr %arrayidx11.i, align 1
  %and.i = and i32 %conv7.i, 15
  %idxprom13.i = zext nneg i32 %and.i to i64
  %arrayidx14.i = getelementptr inbounds [17 x i8], ptr @_ZZN4node11StringBytes10hex_encodeEPKcmPcmE3hex, i64 0, i64 %idxprom13.i
  %2 = load i8, ptr %arrayidx14.i, align 1
  %add15.i = or disjoint i32 %k.012.i, 1
  %idxprom16.i = zext i32 %add15.i to i64
  %arrayidx17.i = getelementptr inbounds i8, ptr %call, i64 %idxprom16.i
  store i8 %2, ptr %arrayidx17.i, align 1
  %add18.i = add i32 %i.011.i, 1
  %add19.i = add i32 %k.012.i, 2
  %conv.i = zext i32 %add19.i to i64
  %cmp6.i = icmp ugt i64 %mul, %conv.i
  br i1 %cmp6.i, label %for.body.i, label %_ZN4node11StringBytes10hex_encodeEPKcmPcm.exit, !llvm.loop !9

_ZN4node11StringBytes10hex_encodeEPKcmPcm.exit:   ; preds = %for.body.i, %for.cond.preheader.i
  ret void
}